target datalayout = "e-m:e-p270:32:32-p271:32:32-p272:64:64-i64:64-i128:128-f80:128-n8:16:32:64-S128"
target triple = "x86_64-pc-linux-gnu"

@.str.10 = private unnamed_addr constant [2 x i8] c"\0A\00", align 1
@.str.11 = private unnamed_addr constant [35 x i8] c"    hilomap [options] [selection]\0A\00", align 1
@.str.12 = private unnamed_addr constant [52 x i8] c"Map constants to 'tielo' and 'tiehi' driver cells.\0A\00", align 1
@.str.13 = private unnamed_addr constant [35 x i8] c"    -hicell <celltype> <portname>\0A\00", align 1
@.str.14 = private unnamed_addr constant [50 x i8] c"        Replace constant hi bits with this cell.\0A\00", align 1
@.str.15 = private unnamed_addr constant [35 x i8] c"    -locell <celltype> <portname>\0A\00", align 1
@.str.16 = private unnamed_addr constant [50 x i8] c"        Replace constant lo bits with this cell.\0A\00", align 1
@.str.17 = private unnamed_addr constant [16 x i8] c"    -singleton\0A\00", align 1
@.str.18 = private unnamed_addr constant [66 x i8] c"        Create only one hi/lo cell and connect all constant bits\0A\00", align 1
@.str.19 = private unnamed_addr constant [66 x i8] c"        to that cell. Per default a separate cell is created for\0A\00", align 1
@.str.20 = private unnamed_addr constant [28 x i8] c"        each constant bit.\0A\00", align 1

; Function Attrs: mustprogress uwtable
define internal void @_ZN12_GLOBAL__N_111HilomapPass4helpEv(ptr noundef nonnull align 8 dereferenceable(104) %0) unnamed_addr #6 align 2 {
  %2 = alloca ptr, align 8
  store ptr %0, ptr %2, align 8, !tbaa !17
  call void (ptr, ...) @_ZN5Yosys3logEPKcz(ptr noundef @.str.10)
  call void (ptr, ...) @_ZN5Yosys3logEPKcz(ptr noundef @.str.11)
  call void (ptr, ...) @_ZN5Yosys3logEPKcz(ptr noundef @.str.10)
  call void (ptr, ...) @_ZN5Yosys3logEPKcz(ptr noundef @.str.12)
  call void (ptr, ...) @_ZN5Yosys3logEPKcz(ptr noundef @.str.10)
  call void (ptr, ...) @_ZN5Yosys3logEPKcz(ptr noundef @.str.13)
  call void (ptr, ...) @_ZN5Yosys3logEPKcz(ptr noundef @.str.14)
  call void (ptr, ...) @_ZN5Yosys3logEPKcz(ptr noundef @.str.10)
  call void (ptr, ...) @_ZN5Yosys3logEPKcz(ptr noundef @.str.15)
  call void (ptr, ...) @_ZN5Yosys3logEPKcz(ptr noundef @.str.16)
  call void (ptr, ...) @_ZN5Yosys3logEPKcz(ptr noundef @.str.10)
  call void (ptr, ...) @_ZN5Yosys3logEPKcz(ptr noundef @.str.17)
  call void (ptr, ...) @_ZN5Yosys3logEPKcz(ptr noundef @.str.18)
  call void (ptr, ...) @_ZN5Yosys3logEPKcz(ptr noundef @.str.19)
  call void (ptr, ...) @_ZN5Yosys3logEPKcz(ptr noundef @.str.20)
  call void (ptr, ...) @_ZN5Yosys3logEPKcz(ptr noundef @.str.10)
  ret void
}